; Function Attrs: mustprogress nounwind uwtable
define hidden noundef i32 @_ZN8JvmtiEnv21SetNativeMethodPrefixEPKc(ptr noundef nonnull align 8 dereferenceable(460) %0, ptr noundef %1) local_unnamed_addr #0 align 2 {
  %3 = alloca ptr, align 8
  store ptr %1, ptr %3, align 8
  %4 = icmp eq ptr %1, null
  %5 = load i32, ptr @_ZN7Threads18_number_of_threadsE, align 4
  %6 = icmp eq i32 %5, 0
  br i1 %4, label %7, label %15

7:                                                ; preds = %2
  br i1 %6, label %8, label %10

8:                                                ; preds = %7
  %9 = tail call noundef i32 @_ZN12JvmtiEnvBase26set_native_method_prefixesEiPPc(ptr noundef nonnull align 8 dereferenceable(460) %0, i32 noundef 0, ptr noundef null) #17
  br label %_ZN8JvmtiEnv23SetNativeMethodPrefixesEiPPc.exit

10:                                               ; preds = %7
  %11 = load ptr, ptr @JvmtiThreadState_lock, align 8
  %.not.i.i.i = icmp eq ptr %11, null
  br i1 %.not.i.i.i, label %_ZN11MutexLockerC2EP5MutexNS0_18SafepointCheckFlagE.exit.thread.i, label %13

_ZN11MutexLockerC2EP5MutexNS0_18SafepointCheckFlagE.exit.thread.i: ; preds = %10
  %12 = tail call noundef i32 @_ZN12JvmtiEnvBase26set_native_method_prefixesEiPPc(ptr noundef nonnull align 8 dereferenceable(460) %0, i32 noundef 0, ptr noundef null) #17
  br label %_ZN8JvmtiEnv23SetNativeMethodPrefixesEiPPc.exit

13:                                               ; preds = %10
  tail call void @_ZN5Mutex4lockEv(ptr noundef nonnull align 8 dereferenceable(104) %11) #17
  %14 = tail call noundef i32 @_ZN12JvmtiEnvBase26set_native_method_prefixesEiPPc(ptr noundef nonnull align 8 dereferenceable(460) %0, i32 noundef 0, ptr noundef null) #17
  tail call void @_ZN5Mutex6unlockEv(ptr noundef nonnull align 8 dereferenceable(104) %11) #17
  br label %_ZN8JvmtiEnv23SetNativeMethodPrefixesEiPPc.exit

15:                                               ; preds = %2
  br i1 %6, label %16, label %18

16:                                               ; preds = %15
  %17 = call noundef i32 @_ZN12JvmtiEnvBase26set_native_method_prefixesEiPPc(ptr noundef nonnull align 8 dereferenceable(460) %0, i32 noundef 1, ptr noundef nonnull %3) #17
  br label %_ZN8JvmtiEnv23SetNativeMethodPrefixesEiPPc.exit

18:                                               ; preds = %15
  %19 = load ptr, ptr @JvmtiThreadState_lock, align 8
  %.not.i.i.i1 = icmp eq ptr %19, null
  br i1 %.not.i.i.i1, label %_ZN11MutexLockerC2EP5MutexNS0_18SafepointCheckFlagE.exit.thread.i3, label %21

_ZN11MutexLockerC2EP5MutexNS0_18SafepointCheckFlagE.exit.thread.i3: ; preds = %18
  %20 = call noundef i32 @_ZN12JvmtiEnvBase26set_native_method_prefixesEiPPc(ptr noundef nonnull align 8 dereferenceable(460) %0, i32 noundef 1, ptr noundef nonnull %3) #17
  br label %_ZN8JvmtiEnv23SetNativeMethodPrefixesEiPPc.exit

21:                                               ; preds = %18
  tail call void @_ZN5Mutex4lockEv(ptr noundef nonnull align 8 dereferenceable(104) %19) #17
  %22 = call noundef i32 @_ZN12JvmtiEnvBase26set_native_method_prefixesEiPPc(ptr noundef nonnull align 8 dereferenceable(460) %0, i32 noundef 1, ptr noundef nonnull %3) #17
  call void @_ZN5Mutex6unlockEv(ptr noundef nonnull align 8 dereferenceable(104) %19) #17
  br label %_ZN8JvmtiEnv23SetNativeMethodPrefixesEiPPc.exit

_ZN8JvmtiEnv23SetNativeMethodPrefixesEiPPc.exit:  ; preds = %21, %_ZN11MutexLockerC2EP5MutexNS0_18SafepointCheckFlagE.exit.thread.i3, %16, %13, %_ZN11MutexLockerC2EP5MutexNS0_18SafepointCheckFlagE.exit.thread.i, %8
  %23 = phi i32 [ %9, %8 ], [ %12, %_ZN11MutexLockerC2EP5MutexNS0_18SafepointCheckFlagE.exit.thread.i ], [ %14, %13 ], [ %17, %16 ], [ %20, %_ZN11MutexLockerC2EP5MutexNS0_18SafepointCheckFlagE.exit.thread.i3 ], [ %22, %21 ]
  ret i32 %23
}